target datalayout = "e-m:e-p270:32:32-p271:32:32-p272:64:64-i64:64-i128:128-f80:128-n8:16:32:64-S128"
target triple = "x86_64-pc-linux-gnu"

; Function Attrs: nounwind uwtable
define hidden zeroext i1 @SDL_IsJoystickBluetoothXboxOne(i16 noundef zeroext %0, i16 noundef zeroext %1) #0 {
  %3 = alloca i1, align 1
  %4 = alloca i16, align 2
  %5 = alloca i16, align 2
  store i16 %0, ptr %4, align 2
  store i16 %1, ptr %5, align 2
  %6 = load i16, ptr %4, align 2
  %7 = zext i16 %6 to i32
  %8 = icmp eq i32 %7, 1118
  br i1 %8, label %9, label %43

9:                                                ; preds = %2
  %10 = load i16, ptr %5, align 2
  %11 = zext i16 %10 to i32
  %12 = icmp eq i32 %11, 2828
  br i1 %12, label %41, label %13

13:                                               ; preds = %9
  %14 = load i16, ptr %5, align 2
  %15 = zext i16 %14 to i32
  %16 = icmp eq i32 %15, 2849
  br i1 %16, label %41, label %17

17:                                               ; preds = %13
  %18 = load i16, ptr %5, align 2
  %19 = zext i16 %18 to i32
  %20 = icmp eq i32 %19, 736
  br i1 %20, label %41, label %21

21:                                               ; preds = %17
  %22 = load i16, ptr %5, align 2
  %23 = zext i16 %22 to i32
  %24 = icmp eq i32 %23, 765
  br i1 %24, label %41, label %25

25:                                               ; preds = %21
  %26 = load i16, ptr %5, align 2
  %27 = zext i16 %26 to i32
  %28 = icmp eq i32 %27, 2848
  br i1 %28, label %41, label %29

29:                                               ; preds = %25
  %30 = load i16, ptr %5, align 2
  %31 = zext i16 %30 to i32
  %32 = icmp eq i32 %31, 2821
  br i1 %32, label %41, label %33

33:                                               ; preds = %29
  %34 = load i16, ptr %5, align 2
  %35 = zext i16 %34 to i32
  %36 = icmp eq i32 %35, 2850
  br i1 %36, label %41, label %37

37:                                               ; preds = %33
  %38 = load i16, ptr %5, align 2
  %39 = zext i16 %38 to i32
  %40 = icmp eq i32 %39, 2835
  br i1 %40, label %41, label %42

41:                                               ; preds = %37, %33, %29, %25, %21, %17, %13, %9
  store i1 true, ptr %3, align 1
  br label %44

42:                                               ; preds = %37
  br label %43

43:                                               ; preds = %42, %2
  store i1 false, ptr %3, align 1
  br label %44

44:                                               ; preds = %43, %41
  %45 = load i1, ptr %3, align 1
  ret i1 %45
}