; Function Attrs: mustprogress nofree norecurse nosync nounwind willreturn memory(none) uwtable
define hidden noundef zeroext i1 @SDL_IsJoystickBluetoothXboxOne(i16 noundef zeroext %0, i16 noundef zeroext %1) local_unnamed_addr #4 {
  %3 = icmp eq i16 %0, 1118
  br i1 %3, label %4, label %5

4:                                                ; preds = %2
  switch i16 %1, label %5 [
    i16 2850, label %6
    i16 2849, label %6
    i16 2848, label %6
    i16 2835, label %6
    i16 2828, label %6
    i16 2821, label %6
    i16 765, label %6
    i16 736, label %6
  ]

5:                                                ; preds = %4, %2
  br label %6

6:                                                ; preds = %4, %4, %4, %4, %4, %4, %4, %4, %5
  %.0 = phi i1 [ false, %5 ], [ true, %4 ], [ true, %4 ], [ true, %4 ], [ true, %4 ], [ true, %4 ], [ true, %4 ], [ true, %4 ], [ true, %4 ]
  ret i1 %.0
}